; ModuleID = '17/721.c'
source_filename = "17/721.c"
target datalayout = "e-m:e-p270:32:32-p271:32:32-p272:64:64-i64:64-f80:128-n8:16:32:64-S128"
target triple = "x86_64-pc-linux-gnu"

%struct._IO_FILE = type { i32, i8*, i8*, i8*, i8*, i8*, i8*, i8*, i8*, i8*, i8*, i8*, %struct._IO_marker*, %struct._IO_FILE*, i32, i32, i64, i16, i8, [1 x i8], i8*, i64, %struct._IO_codecvt*, %struct._IO_wide_data*, %struct._IO_FILE*, i8*, i64, i32, [20 x i8] }
%struct._IO_marker = type opaque
%struct._IO_codecvt = type opaque
%struct._IO_wide_data = type opaque

@stdin = external dso_local global %struct._IO_FILE*, align 8
@.str = private unnamed_addr constant [4 x i8] c"%s\0A\00", align 1
@.str.1 = private unnamed_addr constant [2 x i8] c"\0A\00", align 1
@.str.2 = private unnamed_addr constant [2 x i8] c" \00", align 1
@.str.3 = private unnamed_addr constant [2 x i8] c"$\00", align 1
@.str.4 = private unnamed_addr constant [2 x i8] c"?\00", align 1

; Function Attrs: noinline nounwind uwtable
define dso_local i32 @main() #0 {
  %1 = alloca i32, align 4
  %2 = alloca [200 x i8], align 16
  %3 = alloca [100 x i8], align 16
  %4 = alloca i8, align 1
  %5 = alloca i32, align 4
  %6 = alloca i32, align 4
  %7 = alloca i32, align 4
  %8 = alloca i32, align 4
  %9 = alloca i32, align 4
  store i32 0, i32* %1, align 4
  store i8 41, i8* %4, align 1
  store i32 0, i32* %9, align 4
  br label %10

10:                                               ; preds = %0, %168
  %11 = getelementptr inbounds [200 x i8], [200 x i8]* %2, i64 0, i64 0
  %12 = call i32 (i8*, ...) bitcast (i32 (...)* @gets to i32 (i8*, ...)*)(i8* %11)
  %13 = load %struct._IO_FILE*, %struct._IO_FILE** @stdin, align 8
  %14 = call i32 @feof(%struct._IO_FILE* %13) #3
  %15 = icmp ne i32 %14, 0
  br i1 %15, label %16, label %17

16:                                               ; preds = %10
  br label %169

17:                                               ; preds = %10
  store i32 0, i32* %7, align 4
  br label %18

18:                                               ; preds = %17, %103
  store i8 41, i8* %4, align 1
  store i32 0, i32* %9, align 4
  store i32 0, i32* %5, align 4
  br label %19

19:                                               ; preds = %100, %18
  %20 = load i32, i32* %5, align 4
  %21 = icmp slt i32 %20, 200
  br i1 %21, label %22, label %103

22:                                               ; preds = %19
  %23 = load i32, i32* %5, align 4
  %24 = sext i32 %23 to i64
  %25 = getelementptr inbounds [200 x i8], [200 x i8]* %2, i64 0, i64 %24
  %26 = load i8, i8* %25, align 1
  %27 = sext i8 %26 to i32
  %28 = icmp eq i32 %27, 0
  br i1 %28, label %29, label %30

29:                                               ; preds = %22
  br label %104

30:                                               ; preds = %22
  store i32 0, i32* %8, align 4
  store i32 0, i32* %6, align 4
  br label %31

31:                                               ; preds = %45, %30
  %32 = load i32, i32* %6, align 4
  %33 = load i32, i32* %7, align 4
  %34 = icmp slt i32 %32, %33
  br i1 %34, label %35, label %48

35:                                               ; preds = %31
  %36 = load i32, i32* %5, align 4
  %37 = load i32, i32* %6, align 4
  %38 = sext i32 %37 to i64
  %39 = getelementptr inbounds [100 x i8], [100 x i8]* %3, i64 0, i64 %38
  %40 = load i8, i8* %39, align 1
  %41 = sext i8 %40 to i32
  %42 = icmp eq i32 %36, %41
  br i1 %42, label %43, label %44

43:                                               ; preds = %35
  store i32 1, i32* %8, align 4
  br label %48

44:                                               ; preds = %35
  br label %45

45:                                               ; preds = %44
  %46 = load i32, i32* %6, align 4
  %47 = add nsw i32 %46, 1
  store i32 %47, i32* %6, align 4
  br label %31

48:                                               ; preds = %43, %31
  %49 = load i32, i32* %8, align 4
  %50 = icmp ne i32 %49, 0
  br i1 %50, label %51, label %52

51:                                               ; preds = %48
  br label %100

52:                                               ; preds = %48
  %53 = load i32, i32* %5, align 4
  %54 = sext i32 %53 to i64
  %55 = getelementptr inbounds [200 x i8], [200 x i8]* %2, i64 0, i64 %54
  %56 = load i8, i8* %55, align 1
  %57 = sext i8 %56 to i32
  %58 = icmp ne i32 %57, 40
  br i1 %58, label %59, label %67

59:                                               ; preds = %52
  %60 = load i32, i32* %5, align 4
  %61 = sext i32 %60 to i64
  %62 = getelementptr inbounds [200 x i8], [200 x i8]* %2, i64 0, i64 %61
  %63 = load i8, i8* %62, align 1
  %64 = sext i8 %63 to i32
  %65 = icmp ne i32 %64, 41
  br i1 %65, label %66, label %67

66:                                               ; preds = %59
  br label %100

67:                                               ; preds = %59, %52
  %68 = load i8, i8* %4, align 1
  %69 = sext i8 %68 to i32
  %70 = icmp eq i32 %69, 40
  br i1 %70, label %71, label %92

71:                                               ; preds = %67
  %72 = load i32, i32* %5, align 4
  %73 = sext i32 %72 to i64
  %74 = getelementptr inbounds [200 x i8], [200 x i8]* %2, i64 0, i64 %73
  %75 = load i8, i8* %74, align 1
  %76 = sext i8 %75 to i32
  %77 = icmp eq i32 %76, 41
  br i1 %77, label %78, label %92

78:                                               ; preds = %71
  %79 = load i32, i32* %9, align 4
  %80 = trunc i32 %79 to i8
  %81 = load i32, i32* %7, align 4
  %82 = sext i32 %81 to i64
  %83 = getelementptr inbounds [100 x i8], [100 x i8]* %3, i64 0, i64 %82
  store i8 %80, i8* %83, align 1
  %84 = load i32, i32* %5, align 4
  %85 = trunc i32 %84 to i8
  %86 = load i32, i32* %7, align 4
  %87 = add nsw i32 %86, 1
  %88 = sext i32 %87 to i64
  %89 = getelementptr inbounds [100 x i8], [100 x i8]* %3, i64 0, i64 %88
  store i8 %85, i8* %89, align 1
  %90 = load i32, i32* %7, align 4
  %91 = add nsw i32 %90, 2
  store i32 %91, i32* %7, align 4
  br label %103

92:                                               ; preds = %71, %67
  br label %93

93:                                               ; preds = %92
  br label %94

94:                                               ; preds = %93
  %95 = load i32, i32* %5, align 4
  store i32 %95, i32* %9, align 4
  %96 = load i32, i32* %5, align 4
  %97 = sext i32 %96 to i64
  %98 = getelementptr inbounds [200 x i8], [200 x i8]* %2, i64 0, i64 %97
  %99 = load i8, i8* %98, align 1
  store i8 %99, i8* %4, align 1
  br label %100

100:                                              ; preds = %94, %66, %51
  %101 = load i32, i32* %5, align 4
  %102 = add nsw i32 %101, 1
  store i32 %102, i32* %5, align 4
  br label %19

103:                                              ; preds = %78, %19
  br label %18

104:                                              ; preds = %29
  %105 = getelementptr inbounds [200 x i8], [200 x i8]* %2, i64 0, i64 0
  %106 = call i32 (i8*, ...) @printf(i8* getelementptr inbounds ([4 x i8], [4 x i8]* @.str, i64 0, i64 0), i8* %105)
  store i32 0, i32* %5, align 4
  br label %107

107:                                              ; preds = %165, %104
  %108 = load i32, i32* %5, align 4
  %109 = icmp slt i32 %108, 200
  br i1 %109, label %110, label %168

110:                                              ; preds = %107
  %111 = load i32, i32* %5, align 4
  %112 = sext i32 %111 to i64
  %113 = getelementptr inbounds [200 x i8], [200 x i8]* %2, i64 0, i64 %112
  %114 = load i8, i8* %113, align 1
  %115 = sext i8 %114 to i32
  %116 = icmp eq i32 %115, 0
  br i1 %116, label %117, label %119

117:                                              ; preds = %110
  %118 = call i32 (i8*, ...) @printf(i8* getelementptr inbounds ([2 x i8], [2 x i8]* @.str.1, i64 0, i64 0))
  br label %168

119:                                              ; preds = %110
  store i32 0, i32* %9, align 4
  store i32 0, i32* %6, align 4
  br label %120

120:                                              ; preds = %134, %119
  %121 = load i32, i32* %6, align 4
  %122 = load i32, i32* %7, align 4
  %123 = icmp slt i32 %121, %122
  br i1 %123, label %124, label %137

124:                                              ; preds = %120
  %125 = load i32, i32* %5, align 4
  %126 = load i32, i32* %6, align 4
  %127 = sext i32 %126 to i64
  %128 = getelementptr inbounds [100 x i8], [100 x i8]* %3, i64 0, i64 %127
  %129 = load i8, i8* %128, align 1
  %130 = sext i8 %129 to i32
  %131 = icmp eq i32 %125, %130
  br i1 %131, label %132, label %133

132:                                              ; preds = %124
  store i32 1, i32* %9, align 4
  br label %137

133:                                              ; preds = %124
  br label %134

134:                                              ; preds = %133
  %135 = load i32, i32* %6, align 4
  %136 = add nsw i32 %135, 1
  store i32 %136, i32* %6, align 4
  br label %120

137:                                              ; preds = %132, %120
  %138 = load i32, i32* %9, align 4
  %139 = icmp eq i32 %138, 1
  br i1 %139, label %140, label %142

140:                                              ; preds = %137
  %141 = call i32 (i8*, ...) @printf(i8* getelementptr inbounds ([2 x i8], [2 x i8]* @.str.2, i64 0, i64 0))
  br label %164

142:                                              ; preds = %137
  %143 = load i32, i32* %5, align 4
  %144 = sext i32 %143 to i64
  %145 = getelementptr inbounds [200 x i8], [200 x i8]* %2, i64 0, i64 %144
  %146 = load i8, i8* %145, align 1
  %147 = sext i8 %146 to i32
  %148 = icmp eq i32 %147, 40
  br i1 %148, label %149, label %151

149:                                              ; preds = %142
  %150 = call i32 (i8*, ...) @printf(i8* getelementptr inbounds ([2 x i8], [2 x i8]* @.str.3, i64 0, i64 0))
  br label %163

151:                                              ; preds = %142
  %152 = load i32, i32* %5, align 4
  %153 = sext i32 %152 to i64
  %154 = getelementptr inbounds [200 x i8], [200 x i8]* %2, i64 0, i64 %153
  %155 = load i8, i8* %154, align 1
  %156 = sext i8 %155 to i32
  %157 = icmp eq i32 %156, 41
  br i1 %157, label %158, label %160

158:                                              ; preds = %151
  %159 = call i32 (i8*, ...) @printf(i8* getelementptr inbounds ([2 x i8], [2 x i8]* @.str.4, i64 0, i64 0))
  br label %162

160:                                              ; preds = %151
  %161 = call i32 (i8*, ...) @printf(i8* getelementptr inbounds ([2 x i8], [2 x i8]* @.str.2, i64 0, i64 0))
  br label %162

162:                                              ; preds = %160, %158
  br label %163

163:                                              ; preds = %162, %149
  br label %164

164:                                              ; preds = %163, %140
  br label %165

165:                                              ; preds = %164
  %166 = load i32, i32* %5, align 4
  %167 = add nsw i32 %166, 1
  store i32 %167, i32* %5, align 4
  br label %107

168:                                              ; preds = %117, %107
  br label %10

169:                                              ; preds = %16
  ret i32 0
}

declare dso_local i32 @gets(...) #1

; Function Attrs: nounwind
declare dso_local i32 @feof(%struct._IO_FILE*) #2

declare dso_local i32 @printf(i8*, ...) #1


!llvm.module.flags = !{!0}
!llvm.ident = !{!1}

!0 = !{i32 1, !"wchar_size", i32 4}
!1 = !{!"clang version 10.0.0-4ubuntu1 "}
